; Function Attrs: mustprogress nofree norecurse nounwind willreturn uwtable
define noundef zeroext i1 @_ZNK4base25PersistentMemoryAllocator6IsFullEv(ptr noundef nonnull readonly align 8 captures(none) dereferenceable(48) %0) local_unnamed_addr #1 align 2 {
  %2 = getelementptr inbounds nuw i8, ptr %0, i64 8
  %3 = load ptr, ptr %2, align 8, !tbaa !20
  %4 = getelementptr inbounds nuw i8, ptr %3, i64 28
  %5 = load atomic volatile i32, ptr %4 monotonic, align 4
  %6 = and i32 %5, 2
  %7 = icmp ne i32 %6, 0
  ret i1 %7
}